target datalayout = "e-m:e-p270:32:32-p271:32:32-p272:64:64-i64:64-i128:128-f80:128-n8:16:32:64-S128"
target triple = "x86_64-pc-linux-gnu"

%struct.zskiplistNode = type { ptr, double, ptr, [0 x %struct.zskiplistLevel] }
%struct.zskiplistLevel = type { ptr, i64 }
%struct.zskiplist = type { ptr, ptr, i64, i32 }

; Function Attrs: nounwind uwtable
define dso_local void @zslDeleteNode(ptr noundef %0, ptr noundef %1, ptr noundef %2) #0 {
  %4 = alloca ptr, align 8
  %5 = alloca ptr, align 8
  %6 = alloca ptr, align 8
  %7 = alloca i32, align 4
  store ptr %0, ptr %4, align 8, !tbaa !16
  store ptr %1, ptr %5, align 8, !tbaa !14
  store ptr %2, ptr %6, align 8, !tbaa !37
  call void @llvm.lifetime.start.p0(i64 4, ptr %7) #12
  store i32 0, ptr %7, align 4, !tbaa !5
  br label %8

8:                                                ; preds = %80, %3
  %9 = load i32, ptr %7, align 4, !tbaa !5
  %10 = load ptr, ptr %4, align 8, !tbaa !16
  %11 = getelementptr inbounds nuw %struct.zskiplist, ptr %10, i32 0, i32 3
  %12 = load i32, ptr %11, align 8, !tbaa !18
  %13 = icmp slt i32 %9, %12
  br i1 %13, label %14, label %83

14:                                               ; preds = %8
  %15 = load ptr, ptr %6, align 8, !tbaa !37
  %16 = load i32, ptr %7, align 4, !tbaa !5
  %17 = sext i32 %16 to i64
  %18 = getelementptr inbounds ptr, ptr %15, i64 %17
  %19 = load ptr, ptr %18, align 8, !tbaa !14
  %20 = getelementptr inbounds nuw %struct.zskiplistNode, ptr %19, i32 0, i32 3
  %21 = load i32, ptr %7, align 4, !tbaa !5
  %22 = sext i32 %21 to i64
  %23 = getelementptr inbounds [0 x %struct.zskiplistLevel], ptr %20, i64 0, i64 %22
  %24 = getelementptr inbounds nuw %struct.zskiplistLevel, ptr %23, i32 0, i32 0
  %25 = load ptr, ptr %24, align 8, !tbaa !23
  %26 = load ptr, ptr %5, align 8, !tbaa !14
  %27 = icmp eq ptr %25, %26
  br i1 %27, label %28, label %66

28:                                               ; preds = %14
  %29 = load ptr, ptr %5, align 8, !tbaa !14
  %30 = getelementptr inbounds nuw %struct.zskiplistNode, ptr %29, i32 0, i32 3
  %31 = load i32, ptr %7, align 4, !tbaa !5
  %32 = sext i32 %31 to i64
  %33 = getelementptr inbounds [0 x %struct.zskiplistLevel], ptr %30, i64 0, i64 %32
  %34 = getelementptr inbounds nuw %struct.zskiplistLevel, ptr %33, i32 0, i32 1
  %35 = load i64, ptr %34, align 8, !tbaa !25
  %36 = sub i64 %35, 1
  %37 = load ptr, ptr %6, align 8, !tbaa !37
  %38 = load i32, ptr %7, align 4, !tbaa !5
  %39 = sext i32 %38 to i64
  %40 = getelementptr inbounds ptr, ptr %37, i64 %39
  %41 = load ptr, ptr %40, align 8, !tbaa !14
  %42 = getelementptr inbounds nuw %struct.zskiplistNode, ptr %41, i32 0, i32 3
  %43 = load i32, ptr %7, align 4, !tbaa !5
  %44 = sext i32 %43 to i64
  %45 = getelementptr inbounds [0 x %struct.zskiplistLevel], ptr %42, i64 0, i64 %44
  %46 = getelementptr inbounds nuw %struct.zskiplistLevel, ptr %45, i32 0, i32 1
  %47 = load i64, ptr %46, align 8, !tbaa !25
  %48 = add i64 %47, %36
  store i64 %48, ptr %46, align 8, !tbaa !25
  %49 = load ptr, ptr %5, align 8, !tbaa !14
  %50 = getelementptr inbounds nuw %struct.zskiplistNode, ptr %49, i32 0, i32 3
  %51 = load i32, ptr %7, align 4, !tbaa !5
  %52 = sext i32 %51 to i64
  %53 = getelementptr inbounds [0 x %struct.zskiplistLevel], ptr %50, i64 0, i64 %52
  %54 = getelementptr inbounds nuw %struct.zskiplistLevel, ptr %53, i32 0, i32 0
  %55 = load ptr, ptr %54, align 8, !tbaa !23
  %56 = load ptr, ptr %6, align 8, !tbaa !37
  %57 = load i32, ptr %7, align 4, !tbaa !5
  %58 = sext i32 %57 to i64
  %59 = getelementptr inbounds ptr, ptr %56, i64 %58
  %60 = load ptr, ptr %59, align 8, !tbaa !14
  %61 = getelementptr inbounds nuw %struct.zskiplistNode, ptr %60, i32 0, i32 3
  %62 = load i32, ptr %7, align 4, !tbaa !5
  %63 = sext i32 %62 to i64
  %64 = getelementptr inbounds [0 x %struct.zskiplistLevel], ptr %61, i64 0, i64 %63
  %65 = getelementptr inbounds nuw %struct.zskiplistLevel, ptr %64, i32 0, i32 0
  store ptr %55, ptr %65, align 8, !tbaa !23
  br label %79

66:                                               ; preds = %14
  %67 = load ptr, ptr %6, align 8, !tbaa !37
  %68 = load i32, ptr %7, align 4, !tbaa !5
  %69 = sext i32 %68 to i64
  %70 = getelementptr inbounds ptr, ptr %67, i64 %69
  %71 = load ptr, ptr %70, align 8, !tbaa !14
  %72 = getelementptr inbounds nuw %struct.zskiplistNode, ptr %71, i32 0, i32 3
  %73 = load i32, ptr %7, align 4, !tbaa !5
  %74 = sext i32 %73 to i64
  %75 = getelementptr inbounds [0 x %struct.zskiplistLevel], ptr %72, i64 0, i64 %74
  %76 = getelementptr inbounds nuw %struct.zskiplistLevel, ptr %75, i32 0, i32 1
  %77 = load i64, ptr %76, align 8, !tbaa !25
  %78 = sub i64 %77, 1
  store i64 %78, ptr %76, align 8, !tbaa !25
  br label %79

79:                                               ; preds = %66, %28
  br label %80

80:                                               ; preds = %79
  %81 = load i32, ptr %7, align 4, !tbaa !5
  %82 = add nsw i32 %81, 1
  store i32 %82, ptr %7, align 4, !tbaa !5
  br label %8, !llvm.loop !39

83:                                               ; preds = %8
  %84 = load ptr, ptr %5, align 8, !tbaa !14
  %85 = getelementptr inbounds nuw %struct.zskiplistNode, ptr %84, i32 0, i32 3
  %86 = getelementptr inbounds [0 x %struct.zskiplistLevel], ptr %85, i64 0, i64 0
  %87 = getelementptr inbounds nuw %struct.zskiplistLevel, ptr %86, i32 0, i32 0
  %88 = load ptr, ptr %87, align 8, !tbaa !23
  %89 = icmp ne ptr %88, null
  br i1 %89, label %90, label %100

90:                                               ; preds = %83
  %91 = load ptr, ptr %5, align 8, !tbaa !14
  %92 = getelementptr inbounds nuw %struct.zskiplistNode, ptr %91, i32 0, i32 2
  %93 = load ptr, ptr %92, align 8, !tbaa !14
  %94 = load ptr, ptr %5, align 8, !tbaa !14
  %95 = getelementptr inbounds nuw %struct.zskiplistNode, ptr %94, i32 0, i32 3
  %96 = getelementptr inbounds [0 x %struct.zskiplistLevel], ptr %95, i64 0, i64 0
  %97 = getelementptr inbounds nuw %struct.zskiplistLevel, ptr %96, i32 0, i32 0
  %98 = load ptr, ptr %97, align 8, !tbaa !23
  %99 = getelementptr inbounds nuw %struct.zskiplistNode, ptr %98, i32 0, i32 2
  store ptr %93, ptr %99, align 8, !tbaa !14
  br label %106

100:                                              ; preds = %83
  %101 = load ptr, ptr %5, align 8, !tbaa !14
  %102 = getelementptr inbounds nuw %struct.zskiplistNode, ptr %101, i32 0, i32 2
  %103 = load ptr, ptr %102, align 8, !tbaa !14
  %104 = load ptr, ptr %4, align 8, !tbaa !16
  %105 = getelementptr inbounds nuw %struct.zskiplist, ptr %104, i32 0, i32 1
  store ptr %103, ptr %105, align 8, !tbaa !28
  br label %106

106:                                              ; preds = %100, %90
  br label %107

107:                                              ; preds = %128, %106
  %108 = load ptr, ptr %4, align 8, !tbaa !16
  %109 = getelementptr inbounds nuw %struct.zskiplist, ptr %108, i32 0, i32 3
  %110 = load i32, ptr %109, align 8, !tbaa !18
  %111 = icmp sgt i32 %110, 1
  br i1 %111, label %112, label %126

112:                                              ; preds = %107
  %113 = load ptr, ptr %4, align 8, !tbaa !16
  %114 = getelementptr inbounds nuw %struct.zskiplist, ptr %113, i32 0, i32 0
  %115 = load ptr, ptr %114, align 8, !tbaa !22
  %116 = getelementptr inbounds nuw %struct.zskiplistNode, ptr %115, i32 0, i32 3
  %117 = load ptr, ptr %4, align 8, !tbaa !16
  %118 = getelementptr inbounds nuw %struct.zskiplist, ptr %117, i32 0, i32 3
  %119 = load i32, ptr %118, align 8, !tbaa !18
  %120 = sub nsw i32 %119, 1
  %121 = sext i32 %120 to i64
  %122 = getelementptr inbounds [0 x %struct.zskiplistLevel], ptr %116, i64 0, i64 %121
  %123 = getelementptr inbounds nuw %struct.zskiplistLevel, ptr %122, i32 0, i32 0
  %124 = load ptr, ptr %123, align 8, !tbaa !23
  %125 = icmp eq ptr %124, null
  br label %126

126:                                              ; preds = %112, %107
  %127 = phi i1 [ false, %107 ], [ %125, %112 ]
  br i1 %127, label %128, label %133

128:                                              ; preds = %126
  %129 = load ptr, ptr %4, align 8, !tbaa !16
  %130 = getelementptr inbounds nuw %struct.zskiplist, ptr %129, i32 0, i32 3
  %131 = load i32, ptr %130, align 8, !tbaa !18
  %132 = add nsw i32 %131, -1
  store i32 %132, ptr %130, align 8, !tbaa !18
  br label %107, !llvm.loop !40

133:                                              ; preds = %126
  %134 = load ptr, ptr %4, align 8, !tbaa !16
  %135 = getelementptr inbounds nuw %struct.zskiplist, ptr %134, i32 0, i32 2
  %136 = load i64, ptr %135, align 8, !tbaa !21
  %137 = add i64 %136, -1
  store i64 %137, ptr %135, align 8, !tbaa !21
  call void @llvm.lifetime.end.p0(i64 4, ptr %7) #12
  ret void
}