; Function Attrs: nofree norecurse nosync nounwind memory(readwrite, inaccessiblemem: none) uwtable
define dso_local void @zslDeleteNode(ptr noundef captures(none) %0, ptr noundef readonly captures(address) %1, ptr noundef readonly captures(none) %2) local_unnamed_addr #6 {
  %4 = getelementptr inbounds nuw i8, ptr %0, i64 24
  %5 = load i32, ptr %4, align 8, !tbaa !12
  %6 = icmp sgt i32 %5, 0
  br i1 %6, label %.lr.ph, label %._crit_edge

.lr.ph:                                           ; preds = %3
  %7 = getelementptr inbounds nuw i8, ptr %1, i64 24
  %wide.trip.count = zext nneg i32 %5 to i64
  br label %8

8:                                                ; preds = %.lr.ph, %28
  %indvars.iv = phi i64 [ 0, %.lr.ph ], [ %indvars.iv.next, %28 ]
  %9 = getelementptr inbounds nuw ptr, ptr %2, i64 %indvars.iv
  %10 = load ptr, ptr %9, align 8, !tbaa !29
  %11 = getelementptr inbounds nuw i8, ptr %10, i64 24
  %12 = getelementptr inbounds nuw [0 x %struct.zskiplistLevel], ptr %11, i64 0, i64 %indvars.iv
  %13 = load ptr, ptr %12, align 8, !tbaa !20
  %14 = icmp eq ptr %13, %1
  br i1 %14, label %15, label %24

15:                                               ; preds = %8
  %16 = getelementptr inbounds nuw [0 x %struct.zskiplistLevel], ptr %7, i64 0, i64 %indvars.iv
  %17 = getelementptr inbounds nuw i8, ptr %16, i64 8
  %18 = load i64, ptr %17, align 8, !tbaa !27
  %19 = add i64 %18, -1
  %20 = getelementptr inbounds nuw i8, ptr %12, i64 8
  %21 = load i64, ptr %20, align 8, !tbaa !27
  %22 = add i64 %19, %21
  store i64 %22, ptr %20, align 8, !tbaa !27
  %23 = load ptr, ptr %16, align 8, !tbaa !20
  store ptr %23, ptr %12, align 8, !tbaa !20
  br label %28

24:                                               ; preds = %8
  %25 = getelementptr inbounds nuw i8, ptr %12, i64 8
  %26 = load i64, ptr %25, align 8, !tbaa !27
  %27 = add i64 %26, -1
  store i64 %27, ptr %25, align 8, !tbaa !27
  br label %28

28:                                               ; preds = %15, %24
  %indvars.iv.next = add nuw nsw i64 %indvars.iv, 1
  %exitcond.not = icmp eq i64 %indvars.iv.next, %wide.trip.count
  br i1 %exitcond.not, label %._crit_edge, label %8, !llvm.loop !34

._crit_edge:                                      ; preds = %28, %3
  %29 = getelementptr inbounds nuw i8, ptr %1, i64 24
  %30 = load ptr, ptr %29, align 8, !tbaa !20
  %.not = icmp eq ptr %30, null
  %31 = getelementptr inbounds nuw i8, ptr %1, i64 16
  %32 = load ptr, ptr %31, align 8, !tbaa !29
  br i1 %.not, label %35, label %33

33:                                               ; preds = %._crit_edge
  %34 = getelementptr inbounds nuw i8, ptr %30, i64 16
  store ptr %32, ptr %34, align 8, !tbaa !29
  br label %37

35:                                               ; preds = %._crit_edge
  %36 = getelementptr inbounds nuw i8, ptr %0, i64 8
  store ptr %32, ptr %36, align 8, !tbaa !19
  br label %37

37:                                               ; preds = %35, %33
  %38 = icmp sgt i32 %5, 1
  br i1 %38, label %.lr.ph34, label %.critedge

.lr.ph34:                                         ; preds = %37
  %39 = load ptr, ptr %0, align 8, !tbaa !18
  %40 = getelementptr inbounds nuw i8, ptr %39, i64 24
  %41 = zext nneg i32 %5 to i64
  br label %42

42:                                               ; preds = %.lr.ph34, %46
  %indvars.iv37 = phi i64 [ %41, %.lr.ph34 ], [ %indvars.iv.next38, %46 ]
  %indvars.iv.next38 = add nsw i64 %indvars.iv37, -1
  %43 = getelementptr inbounds nuw [0 x %struct.zskiplistLevel], ptr %40, i64 0, i64 %indvars.iv.next38
  %44 = load ptr, ptr %43, align 8, !tbaa !20
  %45 = icmp eq ptr %44, null
  br i1 %45, label %46, label %.critedge

46:                                               ; preds = %42
  %47 = trunc nuw nsw i64 %indvars.iv.next38 to i32
  store i32 %47, ptr %4, align 8, !tbaa !12
  %48 = icmp samesign ugt i64 %indvars.iv37, 2
  br i1 %48, label %42, label %.critedge, !llvm.loop !35

.critedge:                                        ; preds = %42, %46, %37
  %49 = getelementptr inbounds nuw i8, ptr %0, i64 16
  %50 = load i64, ptr %49, align 8, !tbaa !17
  %51 = add i64 %50, -1
  store i64 %51, ptr %49, align 8, !tbaa !17
  ret void
}